target datalayout = "e-m:e-p270:32:32-p271:32:32-p272:64:64-i64:64-i128:128-f80:128-n8:16:32:64-S128"
target triple = "x86_64-pc-linux-gnu"

%class.StubQueue = type { ptr, ptr, i32, i32, i32, i32, i32, ptr }

; Function Attrs: mustprogress nounwind uwtable
define linkonce_odr hidden noundef i64 @_Z10align_downImiTnNSt9enable_ifIXcvbsr3std11is_integralIT_EE5valueEiE4typeELi0EES1_S1_T0_(i64 noundef %0, i32 noundef %1) #1 comdat {
  %3 = alloca i64, align 8
  %4 = alloca i32, align 4
  %5 = alloca i64, align 8
  store i64 %0, ptr %3, align 8
  store i32 %1, ptr %4, align 4
  %6 = load i64, ptr %3, align 8
  %7 = load i32, ptr %4, align 4
  %8 = call noundef i32 @_ZL14alignment_maskIiTnNSt9enable_ifIXcvbsr3std11is_integralIT_EE5valueEiE4typeELi0EES1_S1_(i32 noundef %7)
  %9 = sext i32 %8 to i64
  %10 = xor i64 %9, -1
  %11 = and i64 %6, %10
  store i64 %11, ptr %5, align 8
  %12 = load i64, ptr %5, align 8
  ret i64 %12
}

; Function Attrs: mustprogress nounwind uwtable
define linkonce_odr hidden noundef i64 @_Z12checked_castImmET_T0_(i64 noundef %0) #1 comdat {
  %2 = alloca i64, align 8
  %3 = alloca i64, align 8
  store i64 %0, ptr %2, align 8
  %4 = load i64, ptr %2, align 8
  store i64 %4, ptr %3, align 8
  %5 = load i64, ptr %3, align 8
  ret i64 %5
}

; Function Attrs: mustprogress nounwind uwtable
define internal noundef i32 @_ZL14alignment_maskIiTnNSt9enable_ifIXcvbsr3std11is_integralIT_EE5valueEiE4typeELi0EES1_S1_(i32 noundef %0) #1 {
  %2 = alloca i32, align 4
  store i32 %0, ptr %2, align 4
  %3 = load i32, ptr %2, align 4
  %4 = sub nsw i32 %3, 1
  ret i32 %4
}

; Function Attrs: mustprogress nounwind uwtable
define linkonce_odr hidden noundef i64 @_Z8align_upImiTnNSt9enable_ifIXcvbsr3std11is_integralIT_EE5valueEiE4typeELi0EES1_S1_T0_(i64 noundef %0, i32 noundef %1) #1 comdat {
  %3 = alloca i64, align 8
  %4 = alloca i32, align 4
  %5 = alloca i64, align 8
  store i64 %0, ptr %3, align 8
  store i32 %1, ptr %4, align 4
  %6 = load i64, ptr %3, align 8
  %7 = load i32, ptr %4, align 4
  %8 = call noundef i32 @_ZL14alignment_maskIiTnNSt9enable_ifIXcvbsr3std11is_integralIT_EE5valueEiE4typeELi0EES1_S1_(i32 noundef %7)
  %9 = sext i32 %8 to i64
  %10 = add i64 %6, %9
  %11 = call noundef i64 @_Z12checked_castImmET_T0_(i64 noundef %10)
  store i64 %11, ptr %5, align 8
  %12 = load i64, ptr %5, align 8
  %13 = load i32, ptr %4, align 4
  %14 = call noundef i64 @_Z10align_downImiTnNSt9enable_ifIXcvbsr3std11is_integralIT_EE5valueEiE4typeELi0EES1_S1_T0_(i64 noundef %12, i32 noundef %13)
  ret i64 %14
}

; Function Attrs: mustprogress nounwind uwtable
define linkonce_odr hidden void @_ZNK9StubQueue16check_stub_alignEP4Stub(ptr noundef nonnull align 8 dereferenceable(48) %0, ptr noundef %1) #1 comdat align 2 {
  %3 = alloca ptr, align 8
  %4 = alloca ptr, align 8
  store ptr %0, ptr %3, align 8
  store ptr %1, ptr %4, align 8
  ret void
}

; Function Attrs: mustprogress nounwind uwtable
define linkonce_odr hidden void @_ZNK9StubQueue11check_indexEi(ptr noundef nonnull align 8 dereferenceable(48) %0, i32 noundef %1) #1 comdat align 2 {
  %3 = alloca ptr, align 8
  %4 = alloca i32, align 4
  store ptr %0, ptr %3, align 8
  store i32 %1, ptr %4, align 4
  ret void
}

; Function Attrs: mustprogress nounwind uwtable
define linkonce_odr hidden noundef ptr @_Z8align_upIhiEPT_S1_T0_(ptr noundef %0, i32 noundef %1) #1 comdat {
  %3 = alloca ptr, align 8
  %4 = alloca i32, align 4
  store ptr %0, ptr %3, align 8
  store i32 %1, ptr %4, align 4
  %5 = load ptr, ptr %3, align 8
  %6 = ptrtoint ptr %5 to i64
  %7 = load i32, ptr %4, align 4
  %8 = call noundef i64 @_Z8align_upImiTnNSt9enable_ifIXcvbsr3std11is_integralIT_EE5valueEiE4typeELi0EES1_S1_T0_(i64 noundef %6, i32 noundef %7)
  %9 = inttoptr i64 %8 to ptr
  ret ptr %9
}

; Function Attrs: mustprogress nounwind uwtable
define linkonce_odr hidden noundef i32 @_ZNK9StubQueue14stub_alignmentEv(ptr noundef nonnull align 8 dereferenceable(48) %0) #1 comdat align 2 {
  %2 = alloca ptr, align 8
  store ptr %0, ptr %2, align 8
  %3 = load ptr, ptr %2, align 8
  %4 = getelementptr inbounds %class.StubQueue, ptr %3, i32 0, i32 0
  %5 = load ptr, ptr %4, align 8
  %6 = load ptr, ptr %5, align 8
  %7 = getelementptr inbounds ptr, ptr %6, i64 3
  %8 = load ptr, ptr %7, align 8
  %9 = call noundef i32 %8(ptr noundef nonnull align 8 dereferenceable(8) %5)
  ret i32 %9
}

; Function Attrs: mustprogress nounwind uwtable
define linkonce_odr hidden noundef ptr @_ZNK9StubQueue15stub_code_beginEP4Stub(ptr noundef nonnull align 8 dereferenceable(48) %0, ptr noundef %1) #1 comdat align 2 {
  %3 = alloca ptr, align 8
  %4 = alloca ptr, align 8
  store ptr %0, ptr %3, align 8
  store ptr %1, ptr %4, align 8
  %5 = load ptr, ptr %3, align 8
  %6 = getelementptr inbounds %class.StubQueue, ptr %5, i32 0, i32 0
  %7 = load ptr, ptr %6, align 8
  %8 = load ptr, ptr %4, align 8
  %9 = load ptr, ptr %7, align 8
  %10 = getelementptr inbounds ptr, ptr %9, i64 5
  %11 = load ptr, ptr %10, align 8
  %12 = call noundef ptr %11(ptr noundef nonnull align 8 dereferenceable(8) %7, ptr noundef %8)
  ret ptr %12
}

; Function Attrs: mustprogress nounwind uwtable
define linkonce_odr hidden noundef ptr @_ZNK9StubQueue7stub_atEi(ptr noundef nonnull align 8 dereferenceable(48) %0, i32 noundef %1) #1 comdat align 2 {
  %3 = alloca ptr, align 8
  %4 = alloca i32, align 4
  %5 = alloca ptr, align 8
  store ptr %0, ptr %3, align 8
  store i32 %1, ptr %4, align 4
  %6 = load ptr, ptr %3, align 8
  %7 = load i32, ptr %4, align 4
  call void @_ZNK9StubQueue11check_indexEi(ptr noundef nonnull align 8 dereferenceable(48) %6, i32 noundef %7)
  %8 = getelementptr inbounds %class.StubQueue, ptr %6, i32 0, i32 1
  %9 = load ptr, ptr %8, align 8
  %10 = load i32, ptr %4, align 4
  %11 = sext i32 %10 to i64
  %12 = getelementptr inbounds i8, ptr %9, i64 %11
  store ptr %12, ptr %5, align 8
  %13 = load ptr, ptr %5, align 8
  call void @_ZNK9StubQueue16check_stub_alignEP4Stub(ptr noundef nonnull align 8 dereferenceable(48) %6, ptr noundef %13)
  %14 = load ptr, ptr %5, align 8
  ret ptr %14
}

; Function Attrs: mustprogress nounwind uwtable
define linkonce_odr hidden void @_ZN9StubQueue15stub_initializeEP4Stubi(ptr noundef nonnull align 8 dereferenceable(48) %0, ptr noundef %1, i32 noundef %2) #1 comdat align 2 {
  %4 = alloca ptr, align 8
  %5 = alloca ptr, align 8
  %6 = alloca i32, align 4
  store ptr %0, ptr %4, align 8
  store ptr %1, ptr %5, align 8
  store i32 %2, ptr %6, align 4
  %7 = load ptr, ptr %4, align 8
  %8 = getelementptr inbounds %class.StubQueue, ptr %7, i32 0, i32 0
  %9 = load ptr, ptr %8, align 8
  %10 = load ptr, ptr %5, align 8
  %11 = load i32, ptr %6, align 4
  %12 = load ptr, ptr %9, align 8
  %13 = getelementptr inbounds ptr, ptr %12, i64 0
  %14 = load ptr, ptr %13, align 8
  call void %14(ptr noundef nonnull align 8 dereferenceable(8) %9, ptr noundef %10, i32 noundef %11)
  ret void
}

; Function Attrs: mustprogress nounwind uwtable
define linkonce_odr hidden noundef zeroext i1 @_ZNK9StubQueue13is_contiguousEv(ptr noundef nonnull align 8 dereferenceable(48) %0) #1 comdat align 2 {
  %2 = alloca ptr, align 8
  store ptr %0, ptr %2, align 8
  %3 = load ptr, ptr %2, align 8
  %4 = getelementptr inbounds %class.StubQueue, ptr %3, i32 0, i32 4
  %5 = load i32, ptr %4, align 8
  %6 = getelementptr inbounds %class.StubQueue, ptr %3, i32 0, i32 5
  %7 = load i32, ptr %6, align 4
  %8 = icmp sle i32 %5, %7
  ret i1 %8
}

; Function Attrs: mustprogress nounwind uwtable
define linkonce_odr hidden noundef i32 @_ZNK9StubQueue15available_spaceEv(ptr noundef nonnull align 8 dereferenceable(48) %0) #1 comdat align 2 {
  %2 = alloca ptr, align 8
  %3 = alloca i32, align 4
  store ptr %0, ptr %2, align 8
  %4 = load ptr, ptr %2, align 8
  %5 = getelementptr inbounds %class.StubQueue, ptr %4, i32 0, i32 4
  %6 = load i32, ptr %5, align 8
  %7 = getelementptr inbounds %class.StubQueue, ptr %4, i32 0, i32 5
  %8 = load i32, ptr %7, align 4
  %9 = sub nsw i32 %6, %8
  %10 = sub nsw i32 %9, 1
  store i32 %10, ptr %3, align 4
  %11 = load i32, ptr %3, align 4
  %12 = icmp slt i32 %11, 0
  br i1 %12, label %13, label %18

13:                                               ; preds = %1
  %14 = load i32, ptr %3, align 4
  %15 = getelementptr inbounds %class.StubQueue, ptr %4, i32 0, i32 2
  %16 = load i32, ptr %15, align 8
  %17 = add nsw i32 %14, %16
  br label %20

18:                                               ; preds = %1
  %19 = load i32, ptr %3, align 4
  br label %20

20:                                               ; preds = %18, %13
  %21 = phi i32 [ %17, %13 ], [ %19, %18 ]
  ret i32 %21
}

; Function Attrs: mustprogress nounwind uwtable
define hidden noundef i32 @_ZN9StubQueue17compute_stub_sizeEP4Stubi(ptr noundef nonnull align 8 dereferenceable(48) %0, ptr noundef %1, i32 noundef %2) #1 align 2 {
  %4 = alloca ptr, align 8
  %5 = alloca ptr, align 8
  %6 = alloca i32, align 4
  %7 = alloca ptr, align 8
  %8 = alloca ptr, align 8
  %9 = alloca ptr, align 8
  store ptr %0, ptr %4, align 8
  store ptr %1, ptr %5, align 8
  store i32 %2, ptr %6, align 4
  %10 = load ptr, ptr %4, align 8
  %11 = load ptr, ptr %5, align 8
  store ptr %11, ptr %7, align 8
  %12 = load ptr, ptr %5, align 8
  %13 = call noundef ptr @_ZNK9StubQueue15stub_code_beginEP4Stub(ptr noundef nonnull align 8 dereferenceable(48) %10, ptr noundef %12)
  store ptr %13, ptr %8, align 8
  %14 = load ptr, ptr %8, align 8
  %15 = load i32, ptr %6, align 4
  %16 = sext i32 %15 to i64
  %17 = getelementptr inbounds i8, ptr %14, i64 %16
  %18 = call noundef i32 @_ZNK9StubQueue14stub_alignmentEv(ptr noundef nonnull align 8 dereferenceable(48) %10)
  %19 = call noundef ptr @_Z8align_upIhiEPT_S1_T0_(ptr noundef %17, i32 noundef %18)
  store ptr %19, ptr %9, align 8
  %20 = load ptr, ptr %9, align 8
  %21 = load ptr, ptr %7, align 8
  %22 = ptrtoint ptr %20 to i64
  %23 = ptrtoint ptr %21 to i64
  %24 = sub i64 %22, %23
  %25 = trunc i64 %24 to i32
  ret i32 %25
}

; Function Attrs: mustprogress nounwind uwtable
define linkonce_odr hidden noundef ptr @_ZNK9StubQueue12current_stubEv(ptr noundef nonnull align 8 dereferenceable(48) %0) #1 comdat align 2 {
  %2 = alloca ptr, align 8
  store ptr %0, ptr %2, align 8
  %3 = load ptr, ptr %2, align 8
  %4 = getelementptr inbounds %class.StubQueue, ptr %3, i32 0, i32 5
  %5 = load i32, ptr %4, align 4
  %6 = call noundef ptr @_ZNK9StubQueue7stub_atEi(ptr noundef nonnull align 8 dereferenceable(48) %3, i32 noundef %5)
  ret ptr %6
}

; Function Attrs: mustprogress nounwind uwtable
define hidden noundef ptr @_ZN9StubQueue7requestEi(ptr noundef nonnull align 8 dereferenceable(48) %0, i32 noundef %1) #1 align 2 {
  %3 = alloca ptr, align 8
  %4 = alloca ptr, align 8
  %5 = alloca i32, align 4
  %6 = alloca ptr, align 8
  %7 = alloca i32, align 4
  store ptr %0, ptr %4, align 8
  store i32 %1, ptr %5, align 4
  %8 = load ptr, ptr %4, align 8
  %9 = getelementptr inbounds %class.StubQueue, ptr %8, i32 0, i32 7
  %10 = load ptr, ptr %9, align 8
  %11 = icmp ne ptr %10, null
  br i1 %11, label %12, label %15

12:                                               ; preds = %2
  %13 = getelementptr inbounds %class.StubQueue, ptr %8, i32 0, i32 7
  %14 = load ptr, ptr %13, align 8
  call void @_ZN5Mutex28lock_without_safepoint_checkEv(ptr noundef nonnull align 8 dereferenceable(104) %14)
  br label %15

15:                                               ; preds = %12, %2
  %16 = call noundef ptr @_ZNK9StubQueue12current_stubEv(ptr noundef nonnull align 8 dereferenceable(48) %8)
  store ptr %16, ptr %6, align 8
  %17 = load ptr, ptr %6, align 8
  %18 = load i32, ptr %5, align 4
  %19 = call noundef i32 @_ZN9StubQueue17compute_stub_sizeEP4Stubi(ptr noundef nonnull align 8 dereferenceable(48) %8, ptr noundef %17, i32 noundef %18)
  store i32 %19, ptr %7, align 4
  %20 = load i32, ptr %7, align 4
  %21 = call noundef i32 @_ZNK9StubQueue15available_spaceEv(ptr noundef nonnull align 8 dereferenceable(48) %8)
  %22 = icmp sle i32 %20, %21
  br i1 %22, label %23, label %44

23:                                               ; preds = %15
  %24 = call noundef zeroext i1 @_ZNK9StubQueue13is_contiguousEv(ptr noundef nonnull align 8 dereferenceable(48) %8)
  br i1 %24, label %25, label %43

25:                                               ; preds = %23
  %26 = getelementptr inbounds %class.StubQueue, ptr %8, i32 0, i32 5
  %27 = load i32, ptr %26, align 4
  %28 = load i32, ptr %7, align 4
  %29 = add nsw i32 %27, %28
  %30 = getelementptr inbounds %class.StubQueue, ptr %8, i32 0, i32 2
  %31 = load i32, ptr %30, align 8
  %32 = icmp sle i32 %29, %31
  br i1 %32, label %33, label %37

33:                                               ; preds = %25
  %34 = load ptr, ptr %6, align 8
  %35 = load i32, ptr %7, align 4
  call void @_ZN9StubQueue15stub_initializeEP4Stubi(ptr noundef nonnull align 8 dereferenceable(48) %8, ptr noundef %34, i32 noundef %35)
  %36 = load ptr, ptr %6, align 8
  store ptr %36, ptr %3, align 8
  br label %61

37:                                               ; preds = %25
  %38 = getelementptr inbounds %class.StubQueue, ptr %8, i32 0, i32 5
  %39 = load i32, ptr %38, align 4
  %40 = getelementptr inbounds %class.StubQueue, ptr %8, i32 0, i32 3
  store i32 %39, ptr %40, align 4
  %41 = getelementptr inbounds %class.StubQueue, ptr %8, i32 0, i32 5
  store i32 0, ptr %41, align 4
  br label %42

42:                                               ; preds = %37
  br label %43

43:                                               ; preds = %42, %23
  br label %44

44:                                               ; preds = %43, %15
  %45 = load i32, ptr %7, align 4
  %46 = call noundef i32 @_ZNK9StubQueue15available_spaceEv(ptr noundef nonnull align 8 dereferenceable(48) %8)
  %47 = icmp sle i32 %45, %46
  br i1 %47, label %48, label %53

48:                                               ; preds = %44
  %49 = call noundef ptr @_ZNK9StubQueue12current_stubEv(ptr noundef nonnull align 8 dereferenceable(48) %8)
  store ptr %49, ptr %6, align 8
  %50 = load ptr, ptr %6, align 8
  %51 = load i32, ptr %7, align 4
  call void @_ZN9StubQueue15stub_initializeEP4Stubi(ptr noundef nonnull align 8 dereferenceable(48) %8, ptr noundef %50, i32 noundef %51)
  %52 = load ptr, ptr %6, align 8
  store ptr %52, ptr %3, align 8
  br label %61

53:                                               ; preds = %44
  %54 = getelementptr inbounds %class.StubQueue, ptr %8, i32 0, i32 7
  %55 = load ptr, ptr %54, align 8
  %56 = icmp ne ptr %55, null
  br i1 %56, label %57, label %60

57:                                               ; preds = %53
  %58 = getelementptr inbounds %class.StubQueue, ptr %8, i32 0, i32 7
  %59 = load ptr, ptr %58, align 8
  call void @_ZN5Mutex6unlockEv(ptr noundef nonnull align 8 dereferenceable(104) %59)
  br label %60

60:                                               ; preds = %57, %53
  store ptr null, ptr %3, align 8
  br label %61

61:                                               ; preds = %60, %48, %33
  %62 = load ptr, ptr %3, align 8
  ret ptr %62
}