; Function Attrs: mustprogress nounwind uwtable
define hidden noundef ptr @_ZN9StubQueue7requestEi(ptr nocapture noundef nonnull align 8 dereferenceable(48) %0, i32 noundef %1) local_unnamed_addr #0 align 2 {
  %3 = getelementptr inbounds i8, ptr %0, i64 40
  %4 = load ptr, ptr %3, align 8
  %.not = icmp eq ptr %4, null
  br i1 %.not, label %6, label %5

5:                                                ; preds = %2
  tail call void @_ZN5Mutex28lock_without_safepoint_checkEv(ptr noundef nonnull align 8 dereferenceable(104) %4) #6
  br label %6

6:                                                ; preds = %5, %2
  %7 = getelementptr inbounds i8, ptr %0, i64 28
  %8 = load i32, ptr %7, align 4
  %9 = getelementptr inbounds i8, ptr %0, i64 8
  %10 = load ptr, ptr %9, align 8
  %11 = sext i32 %8 to i64
  %12 = getelementptr inbounds i8, ptr %10, i64 %11
  %13 = load ptr, ptr %0, align 8
  %14 = load ptr, ptr %13, align 8
  %15 = getelementptr inbounds i8, ptr %14, i64 40
  %16 = load ptr, ptr %15, align 8
  %17 = tail call noundef ptr %16(ptr noundef nonnull align 8 dereferenceable(8) %13, ptr noundef %12) #6
  %18 = sext i32 %1 to i64
  %19 = getelementptr inbounds i8, ptr %17, i64 %18
  %20 = load ptr, ptr %0, align 8
  %21 = load ptr, ptr %20, align 8
  %22 = getelementptr inbounds i8, ptr %21, i64 24
  %23 = load ptr, ptr %22, align 8
  %24 = tail call noundef i32 %23(ptr noundef nonnull align 8 dereferenceable(8) %20) #6
  %25 = ptrtoint ptr %19 to i64
  %26 = add nsw i32 %24, -1
  %27 = zext i32 %26 to i64
  %28 = add i64 %27, %25
  %29 = sub i32 0, %24
  %30 = zext i32 %29 to i64
  %31 = and i64 %28, %30
  %32 = ptrtoint ptr %12 to i64
  %33 = sub i64 %31, %32
  %34 = trunc i64 %33 to i32
  %35 = getelementptr inbounds i8, ptr %0, i64 24
  %36 = load i32, ptr %35, align 8
  %37 = load i32, ptr %7, align 4
  %38 = xor i32 %37, -1
  %39 = add i32 %36, %38
  %40 = icmp slt i32 %39, 0
  %41 = getelementptr inbounds i8, ptr %0, i64 16
  %42 = load i32, ptr %41, align 8
  %43 = select i1 %40, i32 %42, i32 0
  %44 = add nsw i32 %43, %39
  %.not15 = icmp sge i32 %44, %34
  %45 = icmp sle i32 %36, %37
  %or.cond = and i1 %45, %.not15
  br i1 %or.cond, label %46, label %54

46:                                               ; preds = %6
  %47 = add nsw i32 %37, %34
  %.not16 = icmp sgt i32 %47, %42
  br i1 %.not16, label %52, label %48

48:                                               ; preds = %46
  %49 = load ptr, ptr %0, align 8
  %50 = load ptr, ptr %49, align 8
  %51 = load ptr, ptr %50, align 8
  tail call void %51(ptr noundef nonnull align 8 dereferenceable(8) %49, ptr noundef %12, i32 noundef %34) #6
  br label %71

52:                                               ; preds = %46
  %53 = getelementptr inbounds i8, ptr %0, i64 20
  store i32 %37, ptr %53, align 4
  store i32 0, ptr %7, align 4
  br label %54

54:                                               ; preds = %52, %6
  %55 = phi i32 [ 0, %52 ], [ %37, %6 ]
  %56 = xor i32 %55, -1
  %57 = add i32 %36, %56
  %58 = icmp slt i32 %57, 0
  %59 = select i1 %58, i32 %42, i32 0
  %60 = add nsw i32 %59, %57
  %.not17 = icmp slt i32 %60, %34
  br i1 %.not17, label %68, label %61

61:                                               ; preds = %54
  %62 = load ptr, ptr %9, align 8
  %63 = sext i32 %55 to i64
  %64 = getelementptr inbounds i8, ptr %62, i64 %63
  %65 = load ptr, ptr %0, align 8
  %66 = load ptr, ptr %65, align 8
  %67 = load ptr, ptr %66, align 8
  tail call void %67(ptr noundef nonnull align 8 dereferenceable(8) %65, ptr noundef %64, i32 noundef %34) #6
  br label %71

68:                                               ; preds = %54
  %69 = load ptr, ptr %3, align 8
  %.not18 = icmp eq ptr %69, null
  br i1 %.not18, label %71, label %70

70:                                               ; preds = %68
  tail call void @_ZN5Mutex6unlockEv(ptr noundef nonnull align 8 dereferenceable(104) %69) #6
  br label %71

71:                                               ; preds = %68, %70, %61, %48
  %.0 = phi ptr [ %12, %48 ], [ %64, %61 ], [ null, %70 ], [ null, %68 ]
  ret ptr %.0
}